; ModuleID = '24/273.c'
source_filename = "24/273.c"
target datalayout = "e-m:e-p270:32:32-p271:32:32-p272:64:64-i64:64-f80:128-n8:16:32:64-S128"
target triple = "x86_64-pc-linux-gnu"

@.str = private unnamed_addr constant [7 x i8] c"%s\0A%s\0A\00", align 1

; Function Attrs: noinline nounwind uwtable
define dso_local i32 @main() #0 {
  %1 = alloca i32, align 4
  %2 = alloca [3000 x i8], align 16
  %3 = alloca [50 x [200 x i8]], align 16
  %4 = alloca i32, align 4
  %5 = alloca i32, align 4
  %6 = alloca i32, align 4
  %7 = alloca i32, align 4
  %8 = alloca i32, align 4
  %9 = alloca i32, align 4
  %10 = alloca i32, align 4
  %11 = alloca i32, align 4
  store i32 0, i32* %1, align 4
  %12 = bitcast [50 x [200 x i8]]* %3 to i8*
  call void @llvm.memset.p0i8.i64(i8* align 16 %12, i8 0, i64 10000, i1 false)
  store i32 0, i32* %6, align 4
  store i32 0, i32* %7, align 4
  store i32 0, i32* %10, align 4
  store i32 0, i32* %11, align 4
  %13 = getelementptr inbounds [3000 x i8], [3000 x i8]* %2, i64 0, i64 0
  %14 = call i32 (i8*, ...) bitcast (i32 (...)* @gets to i32 (i8*, ...)*)(i8* %13)
  %15 = getelementptr inbounds [3000 x i8], [3000 x i8]* %2, i64 0, i64 0
  %16 = call i64 @strlen(i8* %15) #4
  %17 = trunc i64 %16 to i32
  store i32 %17, i32* %4, align 4
  store i32 0, i32* %5, align 4
  br label %18

18:                                               ; preds = %54, %0
  %19 = load i32, i32* %5, align 4
  %20 = load i32, i32* %4, align 4
  %21 = icmp slt i32 %19, %20
  br i1 %21, label %22, label %57

22:                                               ; preds = %18
  %23 = load i32, i32* %5, align 4
  %24 = sext i32 %23 to i64
  %25 = getelementptr inbounds [3000 x i8], [3000 x i8]* %2, i64 0, i64 %24
  %26 = load i8, i8* %25, align 1
  %27 = sext i8 %26 to i32
  %28 = icmp ne i32 %27, 32
  br i1 %28, label %29, label %42

29:                                               ; preds = %22
  %30 = load i32, i32* %5, align 4
  %31 = sext i32 %30 to i64
  %32 = getelementptr inbounds [3000 x i8], [3000 x i8]* %2, i64 0, i64 %31
  %33 = load i8, i8* %32, align 1
  %34 = load i32, i32* %6, align 4
  %35 = sext i32 %34 to i64
  %36 = getelementptr inbounds [50 x [200 x i8]], [50 x [200 x i8]]* %3, i64 0, i64 %35
  %37 = load i32, i32* %7, align 4
  %38 = sext i32 %37 to i64
  %39 = getelementptr inbounds [200 x i8], [200 x i8]* %36, i64 0, i64 %38
  store i8 %33, i8* %39, align 1
  %40 = load i32, i32* %7, align 4
  %41 = add nsw i32 %40, 1
  store i32 %41, i32* %7, align 4
  br label %53

42:                                               ; preds = %22
  %43 = load i32, i32* %5, align 4
  %44 = sext i32 %43 to i64
  %45 = getelementptr inbounds [3000 x i8], [3000 x i8]* %2, i64 0, i64 %44
  %46 = load i8, i8* %45, align 1
  %47 = sext i8 %46 to i32
  %48 = icmp eq i32 %47, 32
  br i1 %48, label %49, label %52

49:                                               ; preds = %42
  %50 = load i32, i32* %6, align 4
  %51 = add nsw i32 %50, 1
  store i32 %51, i32* %6, align 4
  store i32 0, i32* %7, align 4
  br label %52

52:                                               ; preds = %49, %42
  br label %53

53:                                               ; preds = %52, %29
  br label %54

54:                                               ; preds = %53
  %55 = load i32, i32* %5, align 4
  %56 = add nsw i32 %55, 1
  store i32 %56, i32* %5, align 4
  br label %18

57:                                               ; preds = %18
  %58 = getelementptr inbounds [50 x [200 x i8]], [50 x [200 x i8]]* %3, i64 0, i64 0
  %59 = getelementptr inbounds [200 x i8], [200 x i8]* %58, i64 0, i64 0
  %60 = call i64 @strlen(i8* %59) #4
  %61 = trunc i64 %60 to i32
  store i32 %61, i32* %8, align 4
  %62 = getelementptr inbounds [50 x [200 x i8]], [50 x [200 x i8]]* %3, i64 0, i64 0
  %63 = getelementptr inbounds [200 x i8], [200 x i8]* %62, i64 0, i64 0
  %64 = call i64 @strlen(i8* %63) #4
  %65 = trunc i64 %64 to i32
  store i32 %65, i32* %9, align 4
  store i32 1, i32* %5, align 4
  br label %66

66:                                               ; preds = %105, %57
  %67 = load i32, i32* %5, align 4
  %68 = load i32, i32* %6, align 4
  %69 = icmp sle i32 %67, %68
  br i1 %69, label %70, label %108

70:                                               ; preds = %66
  %71 = load i32, i32* %5, align 4
  %72 = sext i32 %71 to i64
  %73 = getelementptr inbounds [50 x [200 x i8]], [50 x [200 x i8]]* %3, i64 0, i64 %72
  %74 = getelementptr inbounds [200 x i8], [200 x i8]* %73, i64 0, i64 0
  %75 = call i64 @strlen(i8* %74) #4
  %76 = load i32, i32* %8, align 4
  %77 = sext i32 %76 to i64
  %78 = icmp ult i64 %75, %77
  br i1 %78, label %79, label %87

79:                                               ; preds = %70
  %80 = load i32, i32* %5, align 4
  %81 = sext i32 %80 to i64
  %82 = getelementptr inbounds [50 x [200 x i8]], [50 x [200 x i8]]* %3, i64 0, i64 %81
  %83 = getelementptr inbounds [200 x i8], [200 x i8]* %82, i64 0, i64 0
  %84 = call i64 @strlen(i8* %83) #4
  %85 = trunc i64 %84 to i32
  store i32 %85, i32* %8, align 4
  %86 = load i32, i32* %5, align 4
  store i32 %86, i32* %10, align 4
  br label %87

87:                                               ; preds = %79, %70
  %88 = load i32, i32* %5, align 4
  %89 = sext i32 %88 to i64
  %90 = getelementptr inbounds [50 x [200 x i8]], [50 x [200 x i8]]* %3, i64 0, i64 %89
  %91 = getelementptr inbounds [200 x i8], [200 x i8]* %90, i64 0, i64 0
  %92 = call i64 @strlen(i8* %91) #4
  %93 = load i32, i32* %9, align 4
  %94 = sext i32 %93 to i64
  %95 = icmp ugt i64 %92, %94
  br i1 %95, label %96, label %104

96:                                               ; preds = %87
  %97 = load i32, i32* %5, align 4
  %98 = sext i32 %97 to i64
  %99 = getelementptr inbounds [50 x [200 x i8]], [50 x [200 x i8]]* %3, i64 0, i64 %98
  %100 = getelementptr inbounds [200 x i8], [200 x i8]* %99, i64 0, i64 0
  %101 = call i64 @strlen(i8* %100) #4
  %102 = trunc i64 %101 to i32
  store i32 %102, i32* %9, align 4
  %103 = load i32, i32* %5, align 4
  store i32 %103, i32* %11, align 4
  br label %104

104:                                              ; preds = %96, %87
  br label %105

105:                                              ; preds = %104
  %106 = load i32, i32* %5, align 4
  %107 = add nsw i32 %106, 1
  store i32 %107, i32* %5, align 4
  br label %66

108:                                              ; preds = %66
  %109 = load i32, i32* %11, align 4
  %110 = sext i32 %109 to i64
  %111 = getelementptr inbounds [50 x [200 x i8]], [50 x [200 x i8]]* %3, i64 0, i64 %110
  %112 = getelementptr inbounds [200 x i8], [200 x i8]* %111, i64 0, i64 0
  %113 = load i32, i32* %10, align 4
  %114 = sext i32 %113 to i64
  %115 = getelementptr inbounds [50 x [200 x i8]], [50 x [200 x i8]]* %3, i64 0, i64 %114
  %116 = getelementptr inbounds [200 x i8], [200 x i8]* %115, i64 0, i64 0
  %117 = call i32 (i8*, ...) @printf(i8* getelementptr inbounds ([7 x i8], [7 x i8]* @.str, i64 0, i64 0), i8* %112, i8* %116)
  ret i32 0
}

; Function Attrs: argmemonly nounwind willreturn
declare void @llvm.memset.p0i8.i64(i8* nocapture writeonly, i8, i64, i1 immarg) #1

declare dso_local i32 @gets(...) #2

; Function Attrs: nounwind readonly
declare dso_local i64 @strlen(i8*) #3

declare dso_local i32 @printf(i8*, ...) #2


!llvm.module.flags = !{!0}
!llvm.ident = !{!1}

!0 = !{i32 1, !"wchar_size", i32 4}
!1 = !{!"clang version 10.0.0-4ubuntu1 "}
